target datalayout = "e-m:e-p270:32:32-p271:32:32-p272:64:64-i64:64-i128:128-f80:128-n8:16:32:64-S128"
target triple = "x86_64-pc-linux-gnu"

%class.obj_hashtable = type { %class.core_hashtable.base, [4 x i8] }
%class.core_hashtable.base = type <{ ptr, i32, i32, i32 }>
%class.ast_fast_mark = type { %class.ptr_buffer }
%class.ptr_buffer = type { %class.buffer }
%class.buffer = type { ptr, i32, i32, [128 x i8] }
%"class.qe::mbi_plugin" = type { ptr, ptr, %class.ref_vector, %class.obj_hashtable, %class.svector, %"class.std::function" }
%class.ref_vector = type { %class.ref_vector_core }
%class.ref_vector_core = type { %class.ref_manager_wrapper, %class.ptr_vector }
%class.ref_manager_wrapper = type { ptr }
%class.ptr_vector = type { %class.vector }
%class.vector = type { ptr }
%class.svector = type { %class.vector.0 }
%class.vector.0 = type { ptr }
%"class.std::function" = type { %"class.std::_Function_base", ptr }
%"class.std::_Function_base" = type { %"union.std::_Any_data", ptr }
%"union.std::_Any_data" = type { %"union.std::_Nocopy_types" }
%"union.std::_Nocopy_types" = type { { i64, i64 } }
%class.ref_vector.1 = type { %class.ref_vector_core.2 }
%class.ref_vector_core.2 = type { %class.ref_manager_wrapper.3, %class.ptr_vector.4 }
%class.ref_manager_wrapper.3 = type { ptr }
%class.ptr_vector.4 = type { %class.vector.5 }
%class.vector.5 = type { ptr }
%class.ref.38 = type { ptr }
%"class.qe::uflia_mbi" = type { %"class.qe::mbi_plugin", %class.ref_vector.1, %class.obj_hashtable.60, %class.ref_vector.1, %class.ref.38, %class.ref.38 }
%class.obj_hashtable.60 = type { %class.core_hashtable.base.64, [4 x i8] }
%class.core_hashtable.base.64 = type <{ ptr, i32, i32, i32 }>
%"struct.qe::uflia_mbi::is_atom_proc" = type { ptr, ptr, ptr }

; Function Attrs: mustprogress nounwind uwtable
define linkonce_odr hidden noundef i32 @_ZNK6vectorIP4exprLb0EjE4sizeEv(ptr noundef nonnull align 8 dereferenceable(8) %0) #8 comdat align 2 {
  %2 = alloca i32, align 4
  %3 = alloca ptr, align 8
  store ptr %0, ptr %3, align 8, !tbaa !239
  %4 = load ptr, ptr %3, align 8
  %5 = getelementptr inbounds nuw %class.vector.5, ptr %4, i32 0, i32 0
  %6 = load ptr, ptr %5, align 8, !tbaa !242
  %7 = icmp eq ptr %6, null
  br i1 %7, label %8, label %9

8:                                                ; preds = %1
  store i32 0, ptr %2, align 4
  br label %14

9:                                                ; preds = %1
  %10 = getelementptr inbounds nuw %class.vector.5, ptr %4, i32 0, i32 0
  %11 = load ptr, ptr %10, align 8, !tbaa !242
  %12 = getelementptr inbounds i32, ptr %11, i64 -1
  %13 = load i32, ptr %12, align 4, !tbaa !30
  store i32 %13, ptr %2, align 4
  br label %14

14:                                               ; preds = %9, %8
  %15 = load i32, ptr %2, align 4
  ret i32 %15
}

; Function Attrs: mustprogress nounwind uwtable
define linkonce_odr hidden noundef nonnull align 8 dereferenceable(976) ptr @_ZNK10ref_vectorI4expr11ast_managerE11get_managerEv(ptr noundef nonnull align 8 dereferenceable(16) %0) #8 comdat align 2 {
  %2 = alloca ptr, align 8
  store ptr %0, ptr %2, align 8, !tbaa !44
  %3 = load ptr, ptr %2, align 8
  %4 = getelementptr inbounds nuw %class.ref_manager_wrapper.3, ptr %3, i32 0, i32 0
  %5 = load ptr, ptr %4, align 8, !tbaa !247
  ret ptr %5
}

; Function Attrs: mustprogress nounwind uwtable
define linkonce_odr hidden void @_ZN6bufferIP3astLb0ELj16EEC2Ev(ptr noundef nonnull align 8 dereferenceable(144) %0) unnamed_addr #8 comdat align 2 {
  %2 = alloca ptr, align 8
  store ptr %0, ptr %2, align 8, !tbaa !324
  %3 = load ptr, ptr %2, align 8
  %4 = getelementptr inbounds nuw %class.buffer, ptr %3, i32 0, i32 0
  %5 = getelementptr inbounds nuw %class.buffer, ptr %3, i32 0, i32 3
  %6 = getelementptr inbounds [128 x i8], ptr %5, i64 0, i64 0
  store ptr %6, ptr %4, align 8, !tbaa !326
  %7 = getelementptr inbounds nuw %class.buffer, ptr %3, i32 0, i32 1
  store i32 0, ptr %7, align 8, !tbaa !328
  %8 = getelementptr inbounds nuw %class.buffer, ptr %3, i32 0, i32 2
  store i32 16, ptr %8, align 4, !tbaa !329
  ret void
}

; Function Attrs: mustprogress uwtable
define linkonce_odr hidden noundef i32 @_ZNK15ref_vector_coreI4expr19ref_manager_wrapperIS0_11ast_managerEE4sizeEv(ptr noundef nonnull align 8 dereferenceable(16) %0) #4 comdat align 2 {
  %2 = alloca ptr, align 8
  store ptr %0, ptr %2, align 8, !tbaa !133
  %3 = load ptr, ptr %2, align 8
  %4 = getelementptr inbounds nuw %class.ref_vector_core.2, ptr %3, i32 0, i32 1
  %5 = call noundef i32 @_ZNK6vectorIP4exprLb0EjE4sizeEv(ptr noundef nonnull align 8 dereferenceable(8) %4)
  ret i32 %5
}

; Function Attrs: mustprogress nounwind uwtable
define linkonce_odr hidden noundef ptr @_ZNK6vectorIP4exprLb0EjE5beginEv(ptr noundef nonnull align 8 dereferenceable(8) %0) #8 comdat align 2 {
  %2 = alloca ptr, align 8
  store ptr %0, ptr %2, align 8, !tbaa !239
  %3 = load ptr, ptr %2, align 8
  %4 = getelementptr inbounds nuw %class.vector.5, ptr %3, i32 0, i32 0
  %5 = load ptr, ptr %4, align 8, !tbaa !242
  ret ptr %5
}

; Function Attrs: mustprogress nounwind uwtable
define linkonce_odr hidden noundef nonnull align 8 dereferenceable(976) ptr @_ZNK10ref_vectorI4expr11ast_managerE1mEv(ptr noundef nonnull align 8 dereferenceable(16) %0) #8 comdat align 2 {
  %2 = alloca ptr, align 8
  store ptr %0, ptr %2, align 8, !tbaa !44
  %3 = load ptr, ptr %2, align 8
  %4 = call noundef nonnull align 8 dereferenceable(976) ptr @_ZNK10ref_vectorI4expr11ast_managerE11get_managerEv(ptr noundef nonnull align 8 dereferenceable(16) %3)
  ret ptr %4
}

; Function Attrs: inlinehint mustprogress nounwind uwtable
define linkonce_odr hidden void @_ZN10ptr_bufferI3astLj16EEC2Ev(ptr noundef nonnull align 8 dereferenceable(144) %0) unnamed_addr #7 comdat align 2 {
  %2 = alloca ptr, align 8
  store ptr %0, ptr %2, align 8, !tbaa !14
  %3 = load ptr, ptr %2, align 8
  call void @_ZN6bufferIP3astLb0ELj16EEC2Ev(ptr noundef nonnull align 8 dereferenceable(144) %3) #3
  ret void
}

; Function Attrs: mustprogress uwtable
define linkonce_odr hidden void @_Z19quick_for_each_exprIN2qe9uflia_mbi12is_atom_procEEvRT_R13ast_fast_markILj1EEP4expr(ptr noundef nonnull align 8 dereferenceable(24) %0, ptr noundef nonnull align 8 dereferenceable(144) %1, ptr noundef %2) #4 comdat {
  %4 = alloca ptr, align 8
  %5 = alloca ptr, align 8
  %6 = alloca ptr, align 8
  store ptr %0, ptr %4, align 8, !tbaa !218
  store ptr %1, ptr %5, align 8, !tbaa !12
  store ptr %2, ptr %6, align 8, !tbaa !8
  %7 = load ptr, ptr %4, align 8, !tbaa !218
  %8 = load ptr, ptr %5, align 8, !tbaa !12
  %9 = load ptr, ptr %6, align 8, !tbaa !8
  call void @_Z18for_each_expr_coreIN2qe9uflia_mbi12is_atom_procE13ast_fast_markILj1EELb0ELb0EEvRT_RT0_P4expr(ptr noundef nonnull align 8 dereferenceable(24) %7, ptr noundef nonnull align 8 dereferenceable(144) %8, ptr noundef %9)
  ret void
}

; Function Attrs: mustprogress uwtable
define linkonce_odr hidden noundef ptr @_ZNK15ref_vector_coreI4expr19ref_manager_wrapperIS0_11ast_managerEE3endEv(ptr noundef nonnull align 8 dereferenceable(16) %0) #4 comdat align 2 {
  %2 = alloca ptr, align 8
  store ptr %0, ptr %2, align 8, !tbaa !133
  %3 = load ptr, ptr %2, align 8
  %4 = call noundef ptr @_ZNK15ref_vector_coreI4expr19ref_manager_wrapperIS0_11ast_managerEE5beginEv(ptr noundef nonnull align 8 dereferenceable(16) %3)
  %5 = call noundef i32 @_ZNK15ref_vector_coreI4expr19ref_manager_wrapperIS0_11ast_managerEE4sizeEv(ptr noundef nonnull align 8 dereferenceable(16) %3)
  %6 = zext i32 %5 to i64
  %7 = getelementptr inbounds nuw ptr, ptr %4, i64 %6
  ret ptr %7
}

; Function Attrs: mustprogress uwtable
define linkonce_odr hidden noundef ptr @_ZNK15ref_vector_coreI4expr19ref_manager_wrapperIS0_11ast_managerEE5beginEv(ptr noundef nonnull align 8 dereferenceable(16) %0) #4 comdat align 2 {
  %2 = alloca ptr, align 8
  store ptr %0, ptr %2, align 8, !tbaa !133
  %3 = load ptr, ptr %2, align 8
  %4 = getelementptr inbounds nuw %class.ref_vector_core.2, ptr %3, i32 0, i32 1
  %5 = call noundef ptr @_ZNK6vectorIP4exprLb0EjE5beginEv(ptr noundef nonnull align 8 dereferenceable(8) %4)
  ret ptr %5
}

; Function Attrs: mustprogress uwtable
define linkonce_odr hidden void @_ZN2qe9uflia_mbi12is_atom_procC2ER10ref_vectorI4expr11ast_managerER13obj_hashtableIS3_E(ptr noundef nonnull align 8 dereferenceable(24) %0, ptr noundef nonnull align 8 dereferenceable(16) %1, ptr noundef nonnull align 8 dereferenceable(20) %2) unnamed_addr #4 comdat align 2 {
  %4 = alloca ptr, align 8
  %5 = alloca ptr, align 8
  %6 = alloca ptr, align 8
  store ptr %0, ptr %4, align 8, !tbaa !218
  store ptr %1, ptr %5, align 8, !tbaa !44
  store ptr %2, ptr %6, align 8, !tbaa !209
  %7 = load ptr, ptr %4, align 8
  %8 = getelementptr inbounds nuw %"struct.qe::uflia_mbi::is_atom_proc", ptr %7, i32 0, i32 0
  %9 = load ptr, ptr %5, align 8, !tbaa !44
  %10 = call noundef nonnull align 8 dereferenceable(976) ptr @_ZNK10ref_vectorI4expr11ast_managerE1mEv(ptr noundef nonnull align 8 dereferenceable(16) %9)
  store ptr %10, ptr %8, align 8, !tbaa !103
  %11 = getelementptr inbounds nuw %"struct.qe::uflia_mbi::is_atom_proc", ptr %7, i32 0, i32 1
  %12 = load ptr, ptr %5, align 8, !tbaa !44
  store ptr %12, ptr %11, align 8, !tbaa !44
  %13 = getelementptr inbounds nuw %"struct.qe::uflia_mbi::is_atom_proc", ptr %7, i32 0, i32 2
  %14 = load ptr, ptr %6, align 8, !tbaa !209
  store ptr %14, ptr %13, align 8, !tbaa !209
  ret void
}

; Function Attrs: inlinehint mustprogress nounwind uwtable
define linkonce_odr hidden void @_ZN13ast_fast_markILj1EEC2Ev(ptr noundef nonnull align 8 dereferenceable(144) %0) unnamed_addr #7 comdat align 2 {
  %2 = alloca ptr, align 8
  store ptr %0, ptr %2, align 8, !tbaa !12
  %3 = load ptr, ptr %2, align 8
  %4 = getelementptr inbounds nuw %class.ast_fast_mark, ptr %3, i32 0, i32 0
  call void @_ZN10ptr_bufferI3astLj16EEC2Ev(ptr noundef nonnull align 8 dereferenceable(144) %4) #3
  ret void
}

; Function Attrs: mustprogress uwtable
define hidden void @_ZN2qe9uflia_mbi13collect_atomsERK10ref_vectorI4expr11ast_managerE(ptr noundef nonnull align 8 dereferenceable(168) %0, ptr noundef nonnull align 8 dereferenceable(16) %1) #4 align 2 personality ptr @__gxx_personality_v0 {
  %3 = alloca ptr, align 8
  %4 = alloca ptr, align 8
  %5 = alloca %class.ast_fast_mark, align 8
  %6 = alloca %"struct.qe::uflia_mbi::is_atom_proc", align 8
  %7 = alloca ptr, align 8
  %8 = alloca i32, align 4
  %9 = alloca ptr, align 8
  %10 = alloca ptr, align 8
  %11 = alloca ptr, align 8
  %12 = alloca ptr, align 8
  store ptr %0, ptr %3, align 8, !tbaa !207
  store ptr %1, ptr %4, align 8, !tbaa !44
  %13 = load ptr, ptr %3, align 8
  call void @llvm.lifetime.start.p0(i64 144, ptr %5) #3
  call void @_ZN13ast_fast_markILj1EEC2Ev(ptr noundef nonnull align 8 dereferenceable(144) %5) #3
  call void @llvm.lifetime.start.p0(i64 24, ptr %6) #3
  %14 = getelementptr inbounds nuw %"class.qe::uflia_mbi", ptr %13, i32 0, i32 1
  %15 = getelementptr inbounds nuw %"class.qe::uflia_mbi", ptr %13, i32 0, i32 2
  invoke void @_ZN2qe9uflia_mbi12is_atom_procC2ER10ref_vectorI4expr11ast_managerER13obj_hashtableIS3_E(ptr noundef nonnull align 8 dereferenceable(24) %6, ptr noundef nonnull align 8 dereferenceable(16) %14, ptr noundef nonnull align 8 dereferenceable(20) %15)
          to label %16 unwind label %29

16:                                               ; preds = %2
  call void @llvm.lifetime.start.p0(i64 8, ptr %9) #3
  %17 = load ptr, ptr %4, align 8, !tbaa !44
  store ptr %17, ptr %9, align 8, !tbaa !44
  call void @llvm.lifetime.start.p0(i64 8, ptr %10) #3
  %18 = load ptr, ptr %9, align 8, !tbaa !44
  %19 = invoke noundef ptr @_ZNK15ref_vector_coreI4expr19ref_manager_wrapperIS0_11ast_managerEE5beginEv(ptr noundef nonnull align 8 dereferenceable(16) %18)
          to label %20 unwind label %33

20:                                               ; preds = %16
  store ptr %19, ptr %10, align 8, !tbaa !69
  call void @llvm.lifetime.start.p0(i64 8, ptr %11) #3
  %21 = load ptr, ptr %9, align 8, !tbaa !44
  %22 = invoke noundef ptr @_ZNK15ref_vector_coreI4expr19ref_manager_wrapperIS0_11ast_managerEE3endEv(ptr noundef nonnull align 8 dereferenceable(16) %21)
          to label %23 unwind label %37

23:                                               ; preds = %20
  store ptr %22, ptr %11, align 8, !tbaa !69
  br label %24

24:                                               ; preds = %46, %23
  %25 = load ptr, ptr %10, align 8, !tbaa !69
  %26 = load ptr, ptr %11, align 8, !tbaa !69
  %27 = icmp ne ptr %25, %26
  br i1 %27, label %41, label %28

28:                                               ; preds = %24
  call void @llvm.lifetime.end.p0(i64 8, ptr %11) #3
  call void @llvm.lifetime.end.p0(i64 8, ptr %10) #3
  call void @llvm.lifetime.end.p0(i64 8, ptr %9) #3
  br label %55

29:                                               ; preds = %2
  %30 = landingpad { ptr, i32 }
          cleanup
  %31 = extractvalue { ptr, i32 } %30, 0
  store ptr %31, ptr %7, align 8
  %32 = extractvalue { ptr, i32 } %30, 1
  store i32 %32, ptr %8, align 4
  br label %56

33:                                               ; preds = %16
  %34 = landingpad { ptr, i32 }
          cleanup
  %35 = extractvalue { ptr, i32 } %34, 0
  store ptr %35, ptr %7, align 8
  %36 = extractvalue { ptr, i32 } %34, 1
  store i32 %36, ptr %8, align 4
  br label %54

37:                                               ; preds = %20
  %38 = landingpad { ptr, i32 }
          cleanup
  %39 = extractvalue { ptr, i32 } %38, 0
  store ptr %39, ptr %7, align 8
  %40 = extractvalue { ptr, i32 } %38, 1
  store i32 %40, ptr %8, align 4
  br label %53

41:                                               ; preds = %24
  call void @llvm.lifetime.start.p0(i64 8, ptr %12) #3
  %42 = load ptr, ptr %10, align 8, !tbaa !69
  %43 = load ptr, ptr %42, align 8, !tbaa !8
  store ptr %43, ptr %12, align 8, !tbaa !8
  %44 = load ptr, ptr %12, align 8, !tbaa !8
  invoke void @_Z19quick_for_each_exprIN2qe9uflia_mbi12is_atom_procEEvRT_R13ast_fast_markILj1EEP4expr(ptr noundef nonnull align 8 dereferenceable(24) %6, ptr noundef nonnull align 8 dereferenceable(144) %5, ptr noundef %44)
          to label %45 unwind label %49

45:                                               ; preds = %41
  call void @llvm.lifetime.end.p0(i64 8, ptr %12) #3
  br label %46

46:                                               ; preds = %45
  %47 = load ptr, ptr %10, align 8, !tbaa !69
  %48 = getelementptr inbounds nuw ptr, ptr %47, i32 1
  store ptr %48, ptr %10, align 8, !tbaa !69
  br label %24

49:                                               ; preds = %41
  %50 = landingpad { ptr, i32 }
          cleanup
  %51 = extractvalue { ptr, i32 } %50, 0
  store ptr %51, ptr %7, align 8
  %52 = extractvalue { ptr, i32 } %50, 1
  store i32 %52, ptr %8, align 4
  call void @llvm.lifetime.end.p0(i64 8, ptr %12) #3
  br label %53

53:                                               ; preds = %49, %37
  call void @llvm.lifetime.end.p0(i64 8, ptr %11) #3
  br label %54

54:                                               ; preds = %53, %33
  call void @llvm.lifetime.end.p0(i64 8, ptr %10) #3
  call void @llvm.lifetime.end.p0(i64 8, ptr %9) #3
  br label %56

55:                                               ; preds = %28
  call void @llvm.lifetime.end.p0(i64 24, ptr %6) #3
  call void @_ZN13ast_fast_markILj1EED2Ev(ptr noundef nonnull align 8 dereferenceable(144) %5) #3
  call void @llvm.lifetime.end.p0(i64 144, ptr %5) #3
  ret void

56:                                               ; preds = %54, %29
  call void @llvm.lifetime.end.p0(i64 24, ptr %6) #3
  call void @_ZN13ast_fast_markILj1EED2Ev(ptr noundef nonnull align 8 dereferenceable(144) %5) #3
  call void @llvm.lifetime.end.p0(i64 144, ptr %5) #3
  br label %57

57:                                               ; preds = %56
  %58 = load ptr, ptr %7, align 8
  %59 = load i32, ptr %8, align 4
  %60 = insertvalue { ptr, i32 } poison, ptr %58, 0
  %61 = insertvalue { ptr, i32 } %60, i32 %59, 1
  resume { ptr, i32 } %61
}