; Function Attrs: mustprogress uwtable
define hidden void @_ZN2qe9uflia_mbi13collect_atomsERK10ref_vectorI4expr11ast_managerE(ptr noundef nonnull align 8 dereferenceable(168) %0, ptr noundef nonnull readonly align 8 captures(none) dereferenceable(16) %1) local_unnamed_addr #3 align 2 personality ptr @__gxx_personality_v0 {
  %3 = alloca %class.ast_fast_mark, align 8
  %4 = alloca %"struct.qe::uflia_mbi::is_atom_proc", align 8
  call void @llvm.lifetime.start.p0(i64 144, ptr nonnull %3) #25
  %5 = getelementptr inbounds nuw i8, ptr %3, i64 16
  store ptr %5, ptr %3, align 8, !tbaa !16
  %6 = getelementptr inbounds nuw i8, ptr %3, i64 8
  store i32 0, ptr %6, align 8, !tbaa !20
  %7 = getelementptr inbounds nuw i8, ptr %3, i64 12
  store i32 16, ptr %7, align 4, !tbaa !21
  call void @llvm.lifetime.start.p0(i64 24, ptr nonnull %4) #25
  %8 = getelementptr inbounds nuw i8, ptr %0, i64 96
  %9 = getelementptr inbounds nuw i8, ptr %0, i64 112
  %10 = load ptr, ptr %8, align 8, !tbaa !119
  store ptr %10, ptr %4, align 8, !tbaa !101
  %11 = getelementptr inbounds nuw i8, ptr %4, i64 8
  store ptr %8, ptr %11, align 8, !tbaa !222
  %12 = getelementptr inbounds nuw i8, ptr %4, i64 16
  store ptr %9, ptr %12, align 8, !tbaa !224
  %13 = getelementptr inbounds nuw i8, ptr %1, i64 8
  %14 = load ptr, ptr %13, align 8, !tbaa !106
  %15 = icmp eq ptr %14, null
  br i1 %15, label %.loopexit.i.thread, label %_ZNK15ref_vector_coreI4expr19ref_manager_wrapperIS0_11ast_managerEE3endEv.exit

_ZNK15ref_vector_coreI4expr19ref_manager_wrapperIS0_11ast_managerEE3endEv.exit: ; preds = %2
  %16 = getelementptr inbounds i8, ptr %14, i64 -4
  %17 = load i32, ptr %16, align 4, !tbaa !69
  %18 = zext i32 %17 to i64
  %19 = getelementptr inbounds nuw ptr, ptr %14, i64 %18
  %.not17 = icmp eq i32 %17, 0
  br i1 %.not17, label %.loopexit.i.thread, label %.lr.ph

.loopexit.i.thread:                               ; preds = %2, %_ZNK15ref_vector_coreI4expr19ref_manager_wrapperIS0_11ast_managerEE3endEv.exit
  call void @llvm.lifetime.end.p0(i64 24, ptr nonnull %4) #25
  br label %_ZN13ast_fast_markILj1EED2Ev.exit

._crit_edge:                                      ; preds = %_Z19quick_for_each_exprIN2qe9uflia_mbi12is_atom_procEEvRT_R13ast_fast_markILj1EEP4expr.exit
  %.pre = load ptr, ptr %3, align 8, !tbaa !16
  %.pre19 = load i32, ptr %6, align 8, !tbaa !20
  call void @llvm.lifetime.end.p0(i64 24, ptr nonnull %4) #25
  %20 = zext i32 %.pre19 to i64
  %21 = getelementptr inbounds nuw ptr, ptr %.pre, i64 %20
  %.not8.i.i = icmp eq i32 %.pre19, 0
  br i1 %.not8.i.i, label %.loopexit.i, label %.lr.ph.i.i

.lr.ph.i.i:                                       ; preds = %._crit_edge, %.lr.ph.i.i
  %.09.i.i = phi ptr [ %26, %.lr.ph.i.i ], [ %.pre, %._crit_edge ]
  %22 = load ptr, ptr %.09.i.i, align 8, !tbaa !24
  %23 = getelementptr inbounds nuw i8, ptr %22, i64 4
  %24 = load i32, ptr %23, align 4
  %25 = and i32 %24, -65537
  store i32 %25, ptr %23, align 4
  %26 = getelementptr inbounds nuw i8, ptr %.09.i.i, i64 8
  %.not.i.i = icmp eq ptr %26, %21
  br i1 %.not.i.i, label %.loopexit.loopexit.i, label %.lr.ph.i.i

.loopexit.loopexit.i:                             ; preds = %.lr.ph.i.i
  %.pre.i = load ptr, ptr %3, align 8, !tbaa !16
  br label %.loopexit.i

.loopexit.i:                                      ; preds = %.loopexit.loopexit.i, %._crit_edge
  %27 = phi ptr [ %.pre.i, %.loopexit.loopexit.i ], [ %.pre, %._crit_edge ]
  store i32 0, ptr %6, align 8, !tbaa !20
  %.not.i.i.i.i = icmp eq ptr %27, %5
  %28 = icmp eq ptr %27, null
  %or.cond.i.i.i.i = or i1 %.not.i.i.i.i, %28
  br i1 %or.cond.i.i.i.i, label %_ZN13ast_fast_markILj1EED2Ev.exit, label %29

29:                                               ; preds = %.loopexit.i
  invoke void @_ZN6memory10deallocateEPv(ptr noundef nonnull %27)
          to label %_ZN13ast_fast_markILj1EED2Ev.exit unwind label %30

30:                                               ; preds = %29
  %31 = landingpad { ptr, i32 }
          catch ptr null
  %32 = extractvalue { ptr, i32 } %31, 0
  call void @__clang_call_terminate(ptr %32) #26
  unreachable

_ZN13ast_fast_markILj1EED2Ev.exit:                ; preds = %.loopexit.i.thread, %.loopexit.i, %29
  call void @llvm.lifetime.end.p0(i64 144, ptr nonnull %3) #25
  ret void

.lr.ph:                                           ; preds = %_ZNK15ref_vector_coreI4expr19ref_manager_wrapperIS0_11ast_managerEE3endEv.exit, %_Z19quick_for_each_exprIN2qe9uflia_mbi12is_atom_procEEvRT_R13ast_fast_markILj1EEP4expr.exit
  %.01318 = phi ptr [ %34, %_Z19quick_for_each_exprIN2qe9uflia_mbi12is_atom_procEEvRT_R13ast_fast_markILj1EEP4expr.exit ], [ %14, %_ZNK15ref_vector_coreI4expr19ref_manager_wrapperIS0_11ast_managerEE3endEv.exit ]
  %33 = load ptr, ptr %.01318, align 8, !tbaa !39
  invoke void @_Z18for_each_expr_coreIN2qe9uflia_mbi12is_atom_procE13ast_fast_markILj1EELb0ELb0EEvRT_RT0_P4expr(ptr noundef nonnull align 8 dereferenceable(24) %4, ptr noundef nonnull align 8 dereferenceable(144) %3, ptr noundef %33)
          to label %_Z19quick_for_each_exprIN2qe9uflia_mbi12is_atom_procEEvRT_R13ast_fast_markILj1EEP4expr.exit unwind label %35

_Z19quick_for_each_exprIN2qe9uflia_mbi12is_atom_procEEvRT_R13ast_fast_markILj1EEP4expr.exit: ; preds = %.lr.ph
  %34 = getelementptr inbounds nuw i8, ptr %.01318, i64 8
  %.not = icmp eq ptr %34, %19
  br i1 %.not, label %._crit_edge, label %.lr.ph

35:                                               ; preds = %.lr.ph
  %36 = landingpad { ptr, i32 }
          cleanup
  call void @llvm.lifetime.end.p0(i64 24, ptr nonnull %4) #25
  call void @_ZN13ast_fast_markILj1EED2Ev(ptr noundef nonnull align 8 dereferenceable(144) %3) #25
  call void @llvm.lifetime.end.p0(i64 144, ptr nonnull %3) #25
  resume { ptr, i32 } %36
}